; Function Attrs: mustprogress nofree norecurse nosync nounwind willreturn memory(read, inaccessiblemem: none) uwtable
define ptr @PQport(ptr noundef readonly captures(address_is_null) %0) local_unnamed_addr #15 {
  %.not = icmp eq ptr %0, null
  br i1 %.not, label %11, label %2

2:                                                ; preds = %1
  %3 = getelementptr inbounds nuw i8, ptr %0, i64 480
  %4 = load ptr, ptr %3, align 8
  %.not7 = icmp eq ptr %4, null
  br i1 %.not7, label %11, label %5

5:                                                ; preds = %2
  %6 = getelementptr inbounds nuw i8, ptr %0, i64 476
  %7 = load i32, ptr %6, align 4
  %8 = sext i32 %7 to i64
  %9 = getelementptr inbounds %struct.pg_conn_host, ptr %4, i64 %8, i32 3
  %10 = load ptr, ptr %9, align 8
  br label %11

11:                                               ; preds = %2, %1, %5
  %.0 = phi ptr [ %10, %5 ], [ null, %1 ], [ @.str.55, %2 ]
  ret ptr %.0
}